target datalayout = "e-m:e-p270:32:32-p271:32:32-p272:64:64-i64:64-i128:128-f80:128-n8:16:32:64-S128"
target triple = "x86_64-pc-linux-gnu"

%"class.ceres::LossFunction" = type { ptr }
%"class.ceres::CauchyLoss" = type { %"class.ceres::LossFunction", double, double }

@_ZTVN5ceres12LossFunctionE = external unnamed_addr constant { [5 x ptr] }, align 8
@_ZTVN5ceres10CauchyLossE = external unnamed_addr constant { [5 x ptr] }, align 8

; Function Attrs: inlinehint mustprogress nounwind uwtable
define linkonce_odr hidden void @_ZN5ceres12LossFunctionC2Ev(ptr noundef nonnull align 8 dereferenceable(8) %0) unnamed_addr #10 comdat align 2 {
  %2 = alloca ptr, align 8
  store ptr %0, ptr %2, align 8, !tbaa !65
  %3 = load ptr, ptr %2, align 8
  store ptr getelementptr inbounds inrange(-16, 24) ({ [5 x ptr] }, ptr @_ZTVN5ceres12LossFunctionE, i32 0, i32 0, i32 2), ptr %3, align 8, !tbaa !12
  ret void
}

; Function Attrs: mustprogress nounwind uwtable
define linkonce_odr hidden void @_ZN5ceres10CauchyLossC2Ed(ptr noundef nonnull align 8 dereferenceable(24) %0, double noundef %1) unnamed_addr #4 comdat align 2 {
  %3 = alloca ptr, align 8
  %4 = alloca double, align 8
  store ptr %0, ptr %3, align 8, !tbaa !23
  store double %1, ptr %4, align 8, !tbaa !8
  %5 = load ptr, ptr %3, align 8
  call void @_ZN5ceres12LossFunctionC2Ev(ptr noundef nonnull align 8 dereferenceable(8) %5) #3
  store ptr getelementptr inbounds inrange(-16, 24) ({ [5 x ptr] }, ptr @_ZTVN5ceres10CauchyLossE, i32 0, i32 0, i32 2), ptr %5, align 8, !tbaa !12
  %6 = getelementptr inbounds nuw %"class.ceres::CauchyLoss", ptr %5, i32 0, i32 1
  %7 = load double, ptr %4, align 8, !tbaa !8
  %8 = load double, ptr %4, align 8, !tbaa !8
  %9 = fmul double %7, %8
  store double %9, ptr %6, align 8, !tbaa !25
  %10 = getelementptr inbounds nuw %"class.ceres::CauchyLoss", ptr %5, i32 0, i32 2
  %11 = getelementptr inbounds nuw %"class.ceres::CauchyLoss", ptr %5, i32 0, i32 1
  %12 = load double, ptr %11, align 8, !tbaa !25
  %13 = fdiv double 1.000000e+00, %12
  store double %13, ptr %10, align 8, !tbaa !27
  ret void
}

; Function Attrs: mustprogress uwtable
define hidden ptr @ceres_create_cauchy_loss_function_data(double noundef %0) #5 personality ptr @__gxx_personality_v0 {
  %2 = alloca double, align 8
  %3 = alloca ptr, align 8
  %4 = alloca i32, align 4
  store double %0, ptr %2, align 8, !tbaa !8
  %5 = call noalias noundef nonnull ptr @_Znwm(i64 noundef 24) #19
  %6 = load double, ptr %2, align 8, !tbaa !8
  invoke void @_ZN5ceres10CauchyLossC2Ed(ptr noundef nonnull align 8 dereferenceable(24) %5, double noundef %6)
          to label %7 unwind label %8

7:                                                ; preds = %1
  ret ptr %5

8:                                                ; preds = %1
  %9 = landingpad { ptr, i32 }
          cleanup
  %10 = extractvalue { ptr, i32 } %9, 0
  store ptr %10, ptr %3, align 8
  %11 = extractvalue { ptr, i32 } %9, 1
  store i32 %11, ptr %4, align 4
  call void @_ZdlPvm(ptr noundef %5, i64 noundef 24) #20
  br label %12

12:                                               ; preds = %8
  %13 = load ptr, ptr %3, align 8
  %14 = load i32, ptr %4, align 4
  %15 = insertvalue { ptr, i32 } poison, ptr %13, 0
  %16 = insertvalue { ptr, i32 } %15, i32 %14, 1
  resume { ptr, i32 } %16
}